target datalayout = "e-m:e-p270:32:32-p271:32:32-p272:64:64-i64:64-i128:128-f80:128-n8:16:32:64-S128"
target triple = "x86_64-pc-linux-gnu"

%struct.sentinelState = type { [41 x i8], i64, ptr, i32, i32, i64, i64, ptr, ptr, i32, i64, i32, ptr, ptr, i32, i32 }
%struct.sentinelRedisInstance = type { i32, ptr, ptr, i64, ptr, ptr, i64, i64, i64, i64, i64, i64, i64, i64, i64, ptr, i32, i64, i64, ptr, ptr, i32, i32, ptr, ptr, i64, i32, i32, i64, ptr, ptr, i32, i32, i64, ptr, i64, i64, i32, i64, i64, i64, i64, ptr, ptr, ptr, ptr }
%struct.sentinelAddr = type { ptr, ptr, i32 }

@sentinel = dso_local global %struct.sentinelState zeroinitializer, align 8
@.str.199 = private unnamed_addr constant [15 x i8] c"+switch-master\00", align 1
@.str.200 = private unnamed_addr constant [15 x i8] c"%s %s %d %s %d\00", align 1

; Function Attrs: nounwind uwtable
define dso_local ptr @announceSentinelAddr(ptr noundef %0) #0 {
  %2 = alloca ptr, align 8
  store ptr %0, ptr %2, align 8, !tbaa !94
  %3 = load i32, ptr getelementptr inbounds nuw (%struct.sentinelState, ptr @sentinel, i32 0, i32 15), align 4, !tbaa !78
  %4 = icmp ne i32 %3, 0
  br i1 %4, label %5, label %9

5:                                                ; preds = %1
  %6 = load ptr, ptr %2, align 8, !tbaa !94
  %7 = getelementptr inbounds nuw %struct.sentinelAddr, ptr %6, i32 0, i32 0
  %8 = load ptr, ptr %7, align 8, !tbaa !95
  br label %13

9:                                                ; preds = %1
  %10 = load ptr, ptr %2, align 8, !tbaa !94
  %11 = getelementptr inbounds nuw %struct.sentinelAddr, ptr %10, i32 0, i32 1
  %12 = load ptr, ptr %11, align 8, !tbaa !97
  br label %13

13:                                               ; preds = %9, %5
  %14 = phi ptr [ %8, %5 ], [ %12, %9 ]
  ret ptr %14
}

; Function Attrs: nounwind uwtable
define dso_local void @sentinelFailoverSwitchToPromotedSlave(ptr noundef %0) #0 {
  %2 = alloca ptr, align 8
  %3 = alloca ptr, align 8
  store ptr %0, ptr %2, align 8, !tbaa !11
  call void @llvm.lifetime.start.p0(i64 8, ptr %3) #16
  %4 = load ptr, ptr %2, align 8, !tbaa !11
  %5 = getelementptr inbounds nuw %struct.sentinelRedisInstance, ptr %4, i32 0, i32 42
  %6 = load ptr, ptr %5, align 8, !tbaa !36
  %7 = icmp ne ptr %6, null
  br i1 %7, label %8, label %12

8:                                                ; preds = %1
  %9 = load ptr, ptr %2, align 8, !tbaa !11
  %10 = getelementptr inbounds nuw %struct.sentinelRedisInstance, ptr %9, i32 0, i32 42
  %11 = load ptr, ptr %10, align 8, !tbaa !36
  br label %14

12:                                               ; preds = %1
  %13 = load ptr, ptr %2, align 8, !tbaa !11
  br label %14

14:                                               ; preds = %12, %8
  %15 = phi ptr [ %11, %8 ], [ %13, %12 ]
  store ptr %15, ptr %3, align 8, !tbaa !11
  %16 = load ptr, ptr %2, align 8, !tbaa !11
  %17 = load ptr, ptr %2, align 8, !tbaa !11
  %18 = getelementptr inbounds nuw %struct.sentinelRedisInstance, ptr %17, i32 0, i32 1
  %19 = load ptr, ptr %18, align 8, !tbaa !23
  %20 = load ptr, ptr %2, align 8, !tbaa !11
  %21 = getelementptr inbounds nuw %struct.sentinelRedisInstance, ptr %20, i32 0, i32 4
  %22 = load ptr, ptr %21, align 8, !tbaa !32
  %23 = call ptr @announceSentinelAddr(ptr noundef %22)
  %24 = load ptr, ptr %2, align 8, !tbaa !11
  %25 = getelementptr inbounds nuw %struct.sentinelRedisInstance, ptr %24, i32 0, i32 4
  %26 = load ptr, ptr %25, align 8, !tbaa !32
  %27 = getelementptr inbounds nuw %struct.sentinelAddr, ptr %26, i32 0, i32 2
  %28 = load i32, ptr %27, align 8, !tbaa !98
  %29 = load ptr, ptr %3, align 8, !tbaa !11
  %30 = getelementptr inbounds nuw %struct.sentinelRedisInstance, ptr %29, i32 0, i32 4
  %31 = load ptr, ptr %30, align 8, !tbaa !32
  %32 = call ptr @announceSentinelAddr(ptr noundef %31)
  %33 = load ptr, ptr %3, align 8, !tbaa !11
  %34 = getelementptr inbounds nuw %struct.sentinelRedisInstance, ptr %33, i32 0, i32 4
  %35 = load ptr, ptr %34, align 8, !tbaa !32
  %36 = getelementptr inbounds nuw %struct.sentinelAddr, ptr %35, i32 0, i32 2
  %37 = load i32, ptr %36, align 8, !tbaa !98
  call void (i32, ptr, ptr, ptr, ...) @sentinelEvent(i32 noundef 3, ptr noundef @.str.199, ptr noundef %16, ptr noundef @.str.200, ptr noundef %19, ptr noundef %23, i32 noundef %28, ptr noundef %32, i32 noundef %37)
  %38 = load ptr, ptr %2, align 8, !tbaa !11
  %39 = load ptr, ptr %3, align 8, !tbaa !11
  %40 = getelementptr inbounds nuw %struct.sentinelRedisInstance, ptr %39, i32 0, i32 4
  %41 = load ptr, ptr %40, align 8, !tbaa !32
  %42 = getelementptr inbounds nuw %struct.sentinelAddr, ptr %41, i32 0, i32 0
  %43 = load ptr, ptr %42, align 8, !tbaa !95
  %44 = load ptr, ptr %3, align 8, !tbaa !11
  %45 = getelementptr inbounds nuw %struct.sentinelRedisInstance, ptr %44, i32 0, i32 4
  %46 = load ptr, ptr %45, align 8, !tbaa !32
  %47 = getelementptr inbounds nuw %struct.sentinelAddr, ptr %46, i32 0, i32 2
  %48 = load i32, ptr %47, align 8, !tbaa !98
  %49 = call i32 @sentinelResetMasterAndChangeAddress(ptr noundef %38, ptr noundef %43, i32 noundef %48)
  call void @llvm.lifetime.end.p0(i64 8, ptr %3) #16
  ret void
}

; Function Attrs: nounwind uwtable
define dso_local void @sentinelHandleDictOfRedisInstances(ptr noundef %0) #0 {
  %2 = alloca ptr, align 8
  %3 = alloca ptr, align 8
  %4 = alloca ptr, align 8
  %5 = alloca ptr, align 8
  %6 = alloca ptr, align 8
  store ptr %0, ptr %2, align 8, !tbaa !5
  call void @llvm.lifetime.start.p0(i64 8, ptr %3) #16
  call void @llvm.lifetime.start.p0(i64 8, ptr %4) #16
  call void @llvm.lifetime.start.p0(i64 8, ptr %5) #16
  store ptr null, ptr %5, align 8, !tbaa !11
  %7 = load ptr, ptr %2, align 8, !tbaa !5
  %8 = call ptr @dictGetIterator(ptr noundef %7)
  store ptr %8, ptr %3, align 8, !tbaa !87
  br label %9

9:                                                ; preds = %36, %1
  %10 = load ptr, ptr %3, align 8, !tbaa !87
  %11 = call ptr @dictNext(ptr noundef %10)
  store ptr %11, ptr %4, align 8, !tbaa !89
  %12 = icmp ne ptr %11, null
  br i1 %12, label %13, label %37

13:                                               ; preds = %9
  call void @llvm.lifetime.start.p0(i64 8, ptr %6) #16
  %14 = load ptr, ptr %4, align 8, !tbaa !89
  %15 = call ptr @dictGetVal(ptr noundef %14)
  store ptr %15, ptr %6, align 8, !tbaa !11
  %16 = load ptr, ptr %6, align 8, !tbaa !11
  call void @sentinelHandleRedisInstance(ptr noundef %16)
  %17 = load ptr, ptr %6, align 8, !tbaa !11
  %18 = getelementptr inbounds nuw %struct.sentinelRedisInstance, ptr %17, i32 0, i32 0
  %19 = load i32, ptr %18, align 8, !tbaa !34
  %20 = and i32 %19, 1
  %21 = icmp ne i32 %20, 0
  br i1 %21, label %22, label %36

22:                                               ; preds = %13
  %23 = load ptr, ptr %6, align 8, !tbaa !11
  %24 = getelementptr inbounds nuw %struct.sentinelRedisInstance, ptr %23, i32 0, i32 20
  %25 = load ptr, ptr %24, align 8, !tbaa !21
  call void @sentinelHandleDictOfRedisInstances(ptr noundef %25)
  %26 = load ptr, ptr %6, align 8, !tbaa !11
  %27 = getelementptr inbounds nuw %struct.sentinelRedisInstance, ptr %26, i32 0, i32 19
  %28 = load ptr, ptr %27, align 8, !tbaa !13
  call void @sentinelHandleDictOfRedisInstances(ptr noundef %28)
  %29 = load ptr, ptr %6, align 8, !tbaa !11
  %30 = getelementptr inbounds nuw %struct.sentinelRedisInstance, ptr %29, i32 0, i32 37
  %31 = load i32, ptr %30, align 8, !tbaa !193
  %32 = icmp eq i32 %31, 6
  br i1 %32, label %33, label %35

33:                                               ; preds = %22
  %34 = load ptr, ptr %6, align 8, !tbaa !11
  store ptr %34, ptr %5, align 8, !tbaa !11
  br label %35

35:                                               ; preds = %33, %22
  br label %36

36:                                               ; preds = %35, %13
  call void @llvm.lifetime.end.p0(i64 8, ptr %6) #16
  br label %9, !llvm.loop !328

37:                                               ; preds = %9
  %38 = load ptr, ptr %5, align 8, !tbaa !11
  %39 = icmp ne ptr %38, null
  br i1 %39, label %40, label %42

40:                                               ; preds = %37
  %41 = load ptr, ptr %5, align 8, !tbaa !11
  call void @sentinelFailoverSwitchToPromotedSlave(ptr noundef %41)
  br label %42

42:                                               ; preds = %40, %37
  %43 = load ptr, ptr %3, align 8, !tbaa !87
  call void @dictReleaseIterator(ptr noundef %43)
  call void @llvm.lifetime.end.p0(i64 8, ptr %5) #16
  call void @llvm.lifetime.end.p0(i64 8, ptr %4) #16
  call void @llvm.lifetime.end.p0(i64 8, ptr %3) #16
  ret void
}