; Function Attrs: nounwind uwtable
define dso_local void @sentinelHandleDictOfRedisInstances(ptr noundef %0) local_unnamed_addr #0 {
  %2 = tail call ptr @dictGetIterator(ptr noundef %0) #30
  %3 = tail call ptr @dictNext(ptr noundef %2) #30
  %.not15 = icmp eq ptr %3, null
  br i1 %.not15, label %._crit_edge.thread, label %.lr.ph

.lr.ph:                                           ; preds = %1, %16
  %4 = phi ptr [ %17, %16 ], [ %3, %1 ]
  %.016 = phi ptr [ %.1, %16 ], [ null, %1 ]
  %5 = tail call ptr @dictGetVal(ptr noundef nonnull %4) #30
  tail call void @sentinelHandleRedisInstance(ptr noundef %5)
  %6 = load i32, ptr %5, align 8, !tbaa !34
  %7 = and i32 %6, 1
  %.not14 = icmp eq i32 %7, 0
  br i1 %.not14, label %16, label %8

8:                                                ; preds = %.lr.ph
  %9 = getelementptr inbounds nuw i8, ptr %5, i64 160
  %10 = load ptr, ptr %9, align 8, !tbaa !18
  tail call void @sentinelHandleDictOfRedisInstances(ptr noundef %10)
  %11 = getelementptr inbounds nuw i8, ptr %5, i64 152
  %12 = load ptr, ptr %11, align 8, !tbaa !5
  tail call void @sentinelHandleDictOfRedisInstances(ptr noundef %12)
  %13 = getelementptr inbounds nuw i8, ptr %5, i64 272
  %14 = load i32, ptr %13, align 8, !tbaa !169
  %15 = icmp eq i32 %14, 6
  %spec.select = select i1 %15, ptr %5, ptr %.016
  br label %16

16:                                               ; preds = %8, %.lr.ph
  %.1 = phi ptr [ %.016, %.lr.ph ], [ %spec.select, %8 ]
  %17 = tail call ptr @dictNext(ptr noundef %2) #30
  %.not = icmp eq ptr %17, null
  br i1 %.not, label %._crit_edge, label %.lr.ph, !llvm.loop !295

._crit_edge:                                      ; preds = %16
  %.not13 = icmp eq ptr %.1, null
  br i1 %.not13, label %._crit_edge.thread, label %18

18:                                               ; preds = %._crit_edge
  %19 = getelementptr inbounds nuw i8, ptr %.1, i64 312
  %20 = load ptr, ptr %19, align 8, !tbaa !36
  %.not.i = icmp eq ptr %20, null
  %..i = select i1 %.not.i, ptr %.1, ptr %20
  %21 = getelementptr inbounds nuw i8, ptr %.1, i64 8
  %22 = load ptr, ptr %21, align 8, !tbaa !20
  %23 = getelementptr inbounds nuw i8, ptr %.1, i64 32
  %24 = load ptr, ptr %23, align 8, !tbaa !29
  %25 = load i32, ptr getelementptr inbounds nuw (i8, ptr @sentinel, i64 148), align 4, !tbaa !88
  %.not.i.i = icmp eq i32 %25, 0
  %.in.idx.i.i = select i1 %.not.i.i, i64 8, i64 0
  %.in.i.i = getelementptr inbounds nuw i8, ptr %24, i64 %.in.idx.i.i
  %26 = load ptr, ptr %.in.i.i, align 8, !tbaa !87
  %27 = getelementptr inbounds nuw i8, ptr %24, i64 16
  %28 = load i32, ptr %27, align 8, !tbaa !86
  %29 = getelementptr inbounds nuw i8, ptr %..i, i64 32
  %30 = load ptr, ptr %29, align 8, !tbaa !29
  %.in.i14.i = getelementptr inbounds nuw i8, ptr %30, i64 %.in.idx.i.i
  %31 = load ptr, ptr %.in.i14.i, align 8, !tbaa !87
  %32 = getelementptr inbounds nuw i8, ptr %30, i64 16
  %33 = load i32, ptr %32, align 8, !tbaa !86
  tail call void (i32, ptr, ptr, ptr, ...) @sentinelEvent(i32 noundef 3, ptr noundef nonnull @.str.199, ptr noundef nonnull %.1, ptr noundef nonnull @.str.200, ptr noundef %22, ptr noundef %26, i32 noundef %28, ptr noundef %31, i32 noundef %33)
  %34 = load ptr, ptr %29, align 8, !tbaa !29
  %35 = load ptr, ptr %34, align 8, !tbaa !30
  %36 = getelementptr inbounds nuw i8, ptr %34, i64 16
  %37 = load i32, ptr %36, align 8, !tbaa !86
  %38 = tail call i32 @sentinelResetMasterAndChangeAddress(ptr noundef nonnull %.1, ptr noundef %35, i32 noundef %37)
  br label %._crit_edge.thread

._crit_edge.thread:                               ; preds = %1, %18, %._crit_edge
  tail call void @dictReleaseIterator(ptr noundef %2) #30
  ret void
}